target datalayout = "e-m:e-p270:32:32-p271:32:32-p272:64:64-i64:64-i128:128-f80:128-n8:16:32:64-S128"
target triple = "x86_64-pc-linux-gnu"

%struct.LoadF = type { i32, ptr, [8192 x i8] }

@.str.15 = private unnamed_addr constant [7 x i8] c"=stdin\00", align 1
@stdin = external global ptr, align 8
@.str.16 = private unnamed_addr constant [4 x i8] c"@%s\00", align 1
@.str.17 = private unnamed_addr constant [2 x i8] c"r\00", align 1
@.str.18 = private unnamed_addr constant [5 x i8] c"open\00", align 1
@.str.19 = private unnamed_addr constant [5 x i8] c"\1BLua\00", align 1
@.str.20 = private unnamed_addr constant [3 x i8] c"rb\00", align 1
@.str.21 = private unnamed_addr constant [7 x i8] c"reopen\00", align 1
@.str.22 = private unnamed_addr constant [5 x i8] c"read\00", align 1
@.str.23 = private unnamed_addr constant [17 x i8] c"cannot %s %s: %s\00", align 1

; Function Attrs: nounwind uwtable
define internal i32 @errfile(ptr noundef %0, ptr noundef %1, i32 noundef %2) #0 {
  %4 = alloca ptr, align 8
  %5 = alloca ptr, align 8
  %6 = alloca i32, align 4
  %7 = alloca ptr, align 8
  %8 = alloca ptr, align 8
  store ptr %0, ptr %4, align 8, !tbaa !4
  store ptr %1, ptr %5, align 8, !tbaa !11
  store i32 %2, ptr %6, align 4, !tbaa !9
  call void @llvm.lifetime.start.p0(i64 8, ptr %7) #9
  %9 = call ptr @__errno_location() #11
  %10 = load i32, ptr %9, align 4, !tbaa !9
  %11 = call ptr @strerror(i32 noundef %10) #9
  store ptr %11, ptr %7, align 8, !tbaa !11
  call void @llvm.lifetime.start.p0(i64 8, ptr %8) #9
  %12 = load ptr, ptr %4, align 8, !tbaa !4
  %13 = load i32, ptr %6, align 4, !tbaa !9
  %14 = call ptr @lua_tolstring(ptr noundef %12, i32 noundef %13, ptr noundef null)
  %15 = getelementptr inbounds i8, ptr %14, i64 1
  store ptr %15, ptr %8, align 8, !tbaa !11
  %16 = load ptr, ptr %4, align 8, !tbaa !4
  %17 = load ptr, ptr %5, align 8, !tbaa !11
  %18 = load ptr, ptr %8, align 8, !tbaa !11
  %19 = load ptr, ptr %7, align 8, !tbaa !11
  %20 = call ptr (ptr, ptr, ...) @lua_pushfstring(ptr noundef %16, ptr noundef @.str.23, ptr noundef %17, ptr noundef %18, ptr noundef %19)
  %21 = load ptr, ptr %4, align 8, !tbaa !4
  %22 = load i32, ptr %6, align 4, !tbaa !9
  call void @lua_remove(ptr noundef %21, i32 noundef %22)
  call void @llvm.lifetime.end.p0(i64 8, ptr %8) #9
  call void @llvm.lifetime.end.p0(i64 8, ptr %7) #9
  ret i32 6
}

; Function Attrs: nounwind uwtable
define dso_local i32 @luaL_loadfile(ptr noundef %0, ptr noundef %1) #0 {
  %3 = alloca i32, align 4
  %4 = alloca ptr, align 8
  %5 = alloca ptr, align 8
  %6 = alloca %struct.LoadF, align 8
  %7 = alloca i32, align 4
  %8 = alloca i32, align 4
  %9 = alloca i32, align 4
  %10 = alloca i32, align 4
  %11 = alloca i32, align 4
  store ptr %0, ptr %4, align 8, !tbaa !4
  store ptr %1, ptr %5, align 8, !tbaa !11
  call void @llvm.lifetime.start.p0(i64 8208, ptr %6) #9
  call void @llvm.lifetime.start.p0(i64 4, ptr %7) #9
  call void @llvm.lifetime.start.p0(i64 4, ptr %8) #9
  call void @llvm.lifetime.start.p0(i64 4, ptr %9) #9
  call void @llvm.lifetime.start.p0(i64 4, ptr %10) #9
  %12 = load ptr, ptr %4, align 8, !tbaa !4
  %13 = call i32 @lua_gettop(ptr noundef %12)
  %14 = add nsw i32 %13, 1
  store i32 %14, ptr %10, align 4, !tbaa !9
  %15 = getelementptr inbounds nuw %struct.LoadF, ptr %6, i32 0, i32 0
  store i32 0, ptr %15, align 8, !tbaa !47
  %16 = load ptr, ptr %5, align 8, !tbaa !11
  %17 = icmp eq ptr %16, null
  br i1 %17, label %18, label %22

18:                                               ; preds = %2
  %19 = load ptr, ptr %4, align 8, !tbaa !4
  call void @lua_pushlstring(ptr noundef %19, ptr noundef @.str.15, i64 noundef 6)
  %20 = load ptr, ptr @stdin, align 8, !tbaa !50
  %21 = getelementptr inbounds nuw %struct.LoadF, ptr %6, i32 0, i32 1
  store ptr %20, ptr %21, align 8, !tbaa !51
  br label %37

22:                                               ; preds = %2
  %23 = load ptr, ptr %4, align 8, !tbaa !4
  %24 = load ptr, ptr %5, align 8, !tbaa !11
  %25 = call ptr (ptr, ptr, ...) @lua_pushfstring(ptr noundef %23, ptr noundef @.str.16, ptr noundef %24)
  %26 = load ptr, ptr %5, align 8, !tbaa !11
  %27 = call noalias ptr @fopen(ptr noundef %26, ptr noundef @.str.17)
  %28 = getelementptr inbounds nuw %struct.LoadF, ptr %6, i32 0, i32 1
  store ptr %27, ptr %28, align 8, !tbaa !51
  %29 = getelementptr inbounds nuw %struct.LoadF, ptr %6, i32 0, i32 1
  %30 = load ptr, ptr %29, align 8, !tbaa !51
  %31 = icmp eq ptr %30, null
  br i1 %31, label %32, label %36

32:                                               ; preds = %22
  %33 = load ptr, ptr %4, align 8, !tbaa !4
  %34 = load i32, ptr %10, align 4, !tbaa !9
  %35 = call i32 @errfile(ptr noundef %33, ptr noundef @.str.18, i32 noundef %34)
  store i32 %35, ptr %3, align 4
  store i32 1, ptr %11, align 4
  br label %132

36:                                               ; preds = %22
  br label %37

37:                                               ; preds = %36, %18
  %38 = getelementptr inbounds nuw %struct.LoadF, ptr %6, i32 0, i32 1
  %39 = load ptr, ptr %38, align 8, !tbaa !51
  %40 = call i32 @getc(ptr noundef %39)
  store i32 %40, ptr %9, align 4, !tbaa !9
  %41 = load i32, ptr %9, align 4, !tbaa !9
  %42 = icmp eq i32 %41, 35
  br i1 %42, label %43, label %64

43:                                               ; preds = %37
  %44 = getelementptr inbounds nuw %struct.LoadF, ptr %6, i32 0, i32 0
  store i32 1, ptr %44, align 8, !tbaa !47
  br label %45

45:                                               ; preds = %55, %43
  %46 = getelementptr inbounds nuw %struct.LoadF, ptr %6, i32 0, i32 1
  %47 = load ptr, ptr %46, align 8, !tbaa !51
  %48 = call i32 @getc(ptr noundef %47)
  store i32 %48, ptr %9, align 4, !tbaa !9
  %49 = icmp ne i32 %48, -1
  br i1 %49, label %50, label %53

50:                                               ; preds = %45
  %51 = load i32, ptr %9, align 4, !tbaa !9
  %52 = icmp ne i32 %51, 10
  br label %53

53:                                               ; preds = %50, %45
  %54 = phi i1 [ false, %45 ], [ %52, %50 ]
  br i1 %54, label %55, label %56

55:                                               ; preds = %53
  br label %45, !llvm.loop !52

56:                                               ; preds = %53
  %57 = load i32, ptr %9, align 4, !tbaa !9
  %58 = icmp eq i32 %57, 10
  br i1 %58, label %59, label %63

59:                                               ; preds = %56
  %60 = getelementptr inbounds nuw %struct.LoadF, ptr %6, i32 0, i32 1
  %61 = load ptr, ptr %60, align 8, !tbaa !51
  %62 = call i32 @getc(ptr noundef %61)
  store i32 %62, ptr %9, align 4, !tbaa !9
  br label %63

63:                                               ; preds = %59, %56
  br label %64

64:                                               ; preds = %63, %37
  %65 = load i32, ptr %9, align 4, !tbaa !9
  %66 = load i8, ptr @.str.19, align 1, !tbaa !36
  %67 = sext i8 %66 to i32
  %68 = icmp eq i32 %65, %67
  br i1 %68, label %69, label %101

69:                                               ; preds = %64
  %70 = load ptr, ptr %5, align 8, !tbaa !11
  %71 = icmp ne ptr %70, null
  br i1 %71, label %72, label %101

72:                                               ; preds = %69
  %73 = load ptr, ptr %5, align 8, !tbaa !11
  %74 = getelementptr inbounds nuw %struct.LoadF, ptr %6, i32 0, i32 1
  %75 = load ptr, ptr %74, align 8, !tbaa !51
  %76 = call ptr @freopen(ptr noundef %73, ptr noundef @.str.20, ptr noundef %75)
  %77 = getelementptr inbounds nuw %struct.LoadF, ptr %6, i32 0, i32 1
  store ptr %76, ptr %77, align 8, !tbaa !51
  %78 = getelementptr inbounds nuw %struct.LoadF, ptr %6, i32 0, i32 1
  %79 = load ptr, ptr %78, align 8, !tbaa !51
  %80 = icmp eq ptr %79, null
  br i1 %80, label %81, label %85

81:                                               ; preds = %72
  %82 = load ptr, ptr %4, align 8, !tbaa !4
  %83 = load i32, ptr %10, align 4, !tbaa !9
  %84 = call i32 @errfile(ptr noundef %82, ptr noundef @.str.21, i32 noundef %83)
  store i32 %84, ptr %3, align 4
  store i32 1, ptr %11, align 4
  br label %132

85:                                               ; preds = %72
  br label %86

86:                                               ; preds = %98, %85
  %87 = getelementptr inbounds nuw %struct.LoadF, ptr %6, i32 0, i32 1
  %88 = load ptr, ptr %87, align 8, !tbaa !51
  %89 = call i32 @getc(ptr noundef %88)
  store i32 %89, ptr %9, align 4, !tbaa !9
  %90 = icmp ne i32 %89, -1
  br i1 %90, label %91, label %96

91:                                               ; preds = %86
  %92 = load i32, ptr %9, align 4, !tbaa !9
  %93 = load i8, ptr @.str.19, align 1, !tbaa !36
  %94 = sext i8 %93 to i32
  %95 = icmp ne i32 %92, %94
  br label %96

96:                                               ; preds = %91, %86
  %97 = phi i1 [ false, %86 ], [ %95, %91 ]
  br i1 %97, label %98, label %99

98:                                               ; preds = %96
  br label %86, !llvm.loop !53

99:                                               ; preds = %96
  %100 = getelementptr inbounds nuw %struct.LoadF, ptr %6, i32 0, i32 0
  store i32 0, ptr %100, align 8, !tbaa !47
  br label %101

101:                                              ; preds = %99, %69, %64
  %102 = load i32, ptr %9, align 4, !tbaa !9
  %103 = getelementptr inbounds nuw %struct.LoadF, ptr %6, i32 0, i32 1
  %104 = load ptr, ptr %103, align 8, !tbaa !51
  %105 = call i32 @ungetc(i32 noundef %102, ptr noundef %104)
  %106 = load ptr, ptr %4, align 8, !tbaa !4
  %107 = load ptr, ptr %4, align 8, !tbaa !4
  %108 = call ptr @lua_tolstring(ptr noundef %107, i32 noundef -1, ptr noundef null)
  %109 = call i32 @lua_load(ptr noundef %106, ptr noundef @getF, ptr noundef %6, ptr noundef %108)
  store i32 %109, ptr %7, align 4, !tbaa !9
  %110 = getelementptr inbounds nuw %struct.LoadF, ptr %6, i32 0, i32 1
  %111 = load ptr, ptr %110, align 8, !tbaa !51
  %112 = call i32 @ferror(ptr noundef %111) #9
  store i32 %112, ptr %8, align 4, !tbaa !9
  %113 = load ptr, ptr %5, align 8, !tbaa !11
  %114 = icmp ne ptr %113, null
  br i1 %114, label %115, label %119

115:                                              ; preds = %101
  %116 = getelementptr inbounds nuw %struct.LoadF, ptr %6, i32 0, i32 1
  %117 = load ptr, ptr %116, align 8, !tbaa !51
  %118 = call i32 @fclose(ptr noundef %117)
  br label %119

119:                                              ; preds = %115, %101
  %120 = load i32, ptr %8, align 4, !tbaa !9
  %121 = icmp ne i32 %120, 0
  br i1 %121, label %122, label %128

122:                                              ; preds = %119
  %123 = load ptr, ptr %4, align 8, !tbaa !4
  %124 = load i32, ptr %10, align 4, !tbaa !9
  call void @lua_settop(ptr noundef %123, i32 noundef %124)
  %125 = load ptr, ptr %4, align 8, !tbaa !4
  %126 = load i32, ptr %10, align 4, !tbaa !9
  %127 = call i32 @errfile(ptr noundef %125, ptr noundef @.str.22, i32 noundef %126)
  store i32 %127, ptr %3, align 4
  store i32 1, ptr %11, align 4
  br label %132

128:                                              ; preds = %119
  %129 = load ptr, ptr %4, align 8, !tbaa !4
  %130 = load i32, ptr %10, align 4, !tbaa !9
  call void @lua_remove(ptr noundef %129, i32 noundef %130)
  %131 = load i32, ptr %7, align 4, !tbaa !9
  store i32 %131, ptr %3, align 4
  store i32 1, ptr %11, align 4
  br label %132

132:                                              ; preds = %128, %122, %81, %32
  call void @llvm.lifetime.end.p0(i64 4, ptr %10) #9
  call void @llvm.lifetime.end.p0(i64 4, ptr %9) #9
  call void @llvm.lifetime.end.p0(i64 4, ptr %8) #9
  call void @llvm.lifetime.end.p0(i64 4, ptr %7) #9
  call void @llvm.lifetime.end.p0(i64 8208, ptr %6) #9
  %133 = load i32, ptr %3, align 4
  ret i32 %133
}