; Function Attrs: nounwind uwtable
define dso_local i32 @luaL_loadfile(ptr noundef %0, ptr noundef %1) local_unnamed_addr #0 {
  %3 = alloca %struct.LoadF, align 8
  call void @llvm.lifetime.start.p0(i64 8208, ptr nonnull %3) #17
  %4 = tail call i32 @lua_gettop(ptr noundef %0) #17
  %5 = add nsw i32 %4, 1
  store i32 0, ptr %3, align 8, !tbaa !34
  %6 = icmp eq ptr %1, null
  %7 = getelementptr inbounds nuw i8, ptr %3, i64 8
  br i1 %6, label %8, label %10

8:                                                ; preds = %2
  tail call void @lua_pushlstring(ptr noundef %0, ptr noundef nonnull @.str.15, i64 noundef 6) #17
  %9 = load ptr, ptr @stdin, align 8, !tbaa !37
  store ptr %9, ptr %7, align 8, !tbaa !38
  br label %21

10:                                               ; preds = %2
  %11 = tail call ptr (ptr, ptr, ...) @lua_pushfstring(ptr noundef %0, ptr noundef nonnull @.str.16, ptr noundef nonnull %1) #17
  %12 = tail call noalias ptr @fopen(ptr noundef nonnull %1, ptr noundef nonnull @.str.17)
  store ptr %12, ptr %7, align 8, !tbaa !38
  %13 = icmp eq ptr %12, null
  br i1 %13, label %14, label %21

14:                                               ; preds = %10
  %15 = tail call ptr @__errno_location() #19
  %16 = load i32, ptr %15, align 4, !tbaa !39
  %17 = tail call ptr @strerror(i32 noundef %16) #17
  %18 = tail call ptr @lua_tolstring(ptr noundef %0, i32 noundef range(i32 -2147483647, -2147483648) %5, ptr noundef null) #17
  %19 = getelementptr inbounds nuw i8, ptr %18, i64 1
  %20 = tail call ptr (ptr, ptr, ...) @lua_pushfstring(ptr noundef %0, ptr noundef nonnull @.str.23, ptr noundef nonnull @.str.18, ptr noundef nonnull %19, ptr noundef %17) #17
  tail call void @lua_remove(ptr noundef %0, i32 noundef range(i32 -2147483647, -2147483648) %5) #17
  br label %66

21:                                               ; preds = %10, %8
  %22 = phi ptr [ %12, %10 ], [ %9, %8 ]
  %23 = getelementptr inbounds nuw i8, ptr %3, i64 8
  %24 = tail call i32 @getc(ptr noundef %22)
  %25 = icmp eq i32 %24, 35
  br i1 %25, label %26, label %32

26:                                               ; preds = %21
  store i32 1, ptr %3, align 8, !tbaa !34
  br label %27

27:                                               ; preds = %27, %26
  %28 = tail call i32 @getc(ptr noundef %22)
  switch i32 %28, label %27 [
    i32 10, label %30
    i32 -1, label %.thread
  ]

.thread:                                          ; preds = %27
  %29 = icmp ne ptr %1, null
  br label %47

30:                                               ; preds = %27
  %31 = tail call i32 @getc(ptr noundef %22)
  br label %32

32:                                               ; preds = %30, %21
  %.030 = phi i32 [ %31, %30 ], [ %24, %21 ]
  %33 = icmp eq i32 %.030, 27
  %34 = icmp ne ptr %1, null
  %or.cond = and i1 %34, %33
  br i1 %or.cond, label %35, label %47

35:                                               ; preds = %32
  %36 = tail call ptr @freopen(ptr noundef nonnull %1, ptr noundef nonnull @.str.20, ptr noundef %22) #17
  store ptr %36, ptr %23, align 8, !tbaa !38
  %37 = icmp eq ptr %36, null
  br i1 %37, label %38, label %.preheader

38:                                               ; preds = %35
  %39 = tail call ptr @__errno_location() #19
  %40 = load i32, ptr %39, align 4, !tbaa !39
  %41 = tail call ptr @strerror(i32 noundef %40) #17
  %42 = tail call ptr @lua_tolstring(ptr noundef %0, i32 noundef range(i32 -2147483647, -2147483648) %5, ptr noundef null) #17
  %43 = getelementptr inbounds nuw i8, ptr %42, i64 1
  %44 = tail call ptr (ptr, ptr, ...) @lua_pushfstring(ptr noundef %0, ptr noundef nonnull @.str.23, ptr noundef nonnull @.str.21, ptr noundef nonnull %43, ptr noundef %41) #17
  tail call void @lua_remove(ptr noundef %0, i32 noundef range(i32 -2147483647, -2147483648) %5) #17
  br label %66

.preheader:                                       ; preds = %35, %.preheader
  %45 = tail call i32 @getc(ptr noundef nonnull %36)
  switch i32 %45, label %.preheader [
    i32 -1, label %46
    i32 27, label %46
  ]

46:                                               ; preds = %.preheader, %.preheader
  store i32 0, ptr %3, align 8, !tbaa !34
  br label %47

47:                                               ; preds = %.thread, %46, %32
  %48 = phi ptr [ %36, %46 ], [ %22, %32 ], [ %22, %.thread ]
  %49 = phi i1 [ true, %46 ], [ %34, %32 ], [ %29, %.thread ]
  %.1 = phi i32 [ %45, %46 ], [ %.030, %32 ], [ -1, %.thread ]
  %50 = tail call i32 @ungetc(i32 noundef %.1, ptr noundef %48)
  %51 = tail call ptr @lua_tolstring(ptr noundef %0, i32 noundef -1, ptr noundef null) #17
  %52 = call i32 @lua_load(ptr noundef %0, ptr noundef nonnull @getF, ptr noundef nonnull %3, ptr noundef %51) #17
  %53 = load ptr, ptr %23, align 8, !tbaa !38
  %54 = call i32 @ferror(ptr noundef %53) #17
  br i1 %49, label %55, label %57

55:                                               ; preds = %47
  %56 = call i32 @fclose(ptr noundef %53)
  br label %57

57:                                               ; preds = %55, %47
  %.not = icmp eq i32 %54, 0
  br i1 %.not, label %65, label %58

58:                                               ; preds = %57
  call void @lua_settop(ptr noundef %0, i32 noundef %5) #17
  %59 = tail call ptr @__errno_location() #19
  %60 = load i32, ptr %59, align 4, !tbaa !39
  %61 = call ptr @strerror(i32 noundef %60) #17
  %62 = call ptr @lua_tolstring(ptr noundef %0, i32 noundef range(i32 -2147483647, -2147483648) %5, ptr noundef null) #17
  %63 = getelementptr inbounds nuw i8, ptr %62, i64 1
  %64 = call ptr (ptr, ptr, ...) @lua_pushfstring(ptr noundef %0, ptr noundef nonnull @.str.23, ptr noundef nonnull @.str.22, ptr noundef nonnull %63, ptr noundef %61) #17
  call void @lua_remove(ptr noundef %0, i32 noundef range(i32 -2147483647, -2147483648) %5) #17
  br label %66

65:                                               ; preds = %57
  call void @lua_remove(ptr noundef %0, i32 noundef %5) #17
  br label %66

66:                                               ; preds = %65, %58, %38, %14
  %.0 = phi i32 [ 6, %38 ], [ 6, %58 ], [ %52, %65 ], [ 6, %14 ]
  call void @llvm.lifetime.end.p0(i64 8208, ptr nonnull %3) #17
  ret i32 %.0
}